target datalayout = "e-m:e-p270:32:32-p271:32:32-p272:64:64-i64:64-i128:128-f80:128-n8:16:32:64-S128"
target triple = "x86_64-pc-linux-gnu"

%struct.BackendGlobalData = type <{ ptr, ptr, i8, i8, i8, i8, i8, i8, i8, i8, i8, [3 x i8], i32, ptr, ptr, ptr, ptr, ptr, ptr, ptr, ptr, ptr, ptr, ptr, ptr, ptr, i32, %struct.jvmtiCapabilities, i8, [3 x i8], %struct.jvmtiEventCallbacks, ptr, ptr, ptr, ptr, ptr, ptr, ptr, i32, [4 x i8], ptr, i64, i32, [4 x i8], ptr, i32, i32, i8, i8, [6 x i8] }>
%struct.jvmtiCapabilities = type { i64, i64 }
%struct.jvmtiEventCallbacks = type { ptr, ptr, ptr, ptr, ptr, ptr, ptr, ptr, ptr, ptr, ptr, ptr, ptr, ptr, ptr, ptr, ptr, ptr, ptr, ptr, ptr, ptr, ptr, ptr, ptr, ptr, ptr, ptr, ptr, ptr, ptr, ptr, ptr, ptr, ptr, ptr, ptr, ptr, ptr }
%struct.EventInfo = type { i32, ptr, i8, ptr, ptr, i64, ptr, %union.anon }
%union.anon = type { %struct.anon.0 }
%struct.anon.0 = type { ptr, ptr, i8, %union.jvalue }
%union.jvalue = type { i64 }

@stderr = external global ptr, align 8
@.str = private unnamed_addr constant [17 x i8] c"JDWP exit error \00", align 1
@.str.1 = private unnamed_addr constant [2 x i8] c"\0A\00", align 1
@.str.2 = private unnamed_addr constant [19 x i8] c"%s(%d): %s [%s:%d]\00", align 1
@.str.4 = private unnamed_addr constant [55 x i8] c"src/jdk.jdwp.agent/share/native/libjdwp/eventHandler.c\00", align 1
@gdata = external global ptr, align 8
@active_callbacks = internal global i32 0, align 4
@vm_death_callback_active = internal global i8 0, align 1
@callbackLock = internal global ptr null, align 8
@callbackBlock = internal global ptr null, align 8
@.str.25 = private unnamed_addr constant [5 x i8] c"MISC\00", align 1
@.str.28 = private unnamed_addr constant [3 x i8] c"CB\00", align 1
@.str.30 = private unnamed_addr constant [35 x i8] c"Problems tracking active callbacks\00", align 1
@.str.81 = private unnamed_addr constant [25 x i8] c"gdata->vthreadsSupported\00", align 1
@.str.83 = private unnamed_addr constant [25 x i8] c"cbVThreadEnd: vthread=%p\00", align 1
@.str.84 = private unnamed_addr constant [17 x i8] c"END cbVThreadEnd\00", align 1

; Function Attrs: nounwind uwtable
define internal void @cbVThreadEnd(ptr noundef %0, ptr noundef %1, ptr noundef %2) #0 {
  %4 = alloca ptr, align 8
  %5 = alloca ptr, align 8
  %6 = alloca ptr, align 8
  %7 = alloca %struct.EventInfo, align 8
  %8 = alloca i8, align 1
  store ptr %0, ptr %4, align 8
  store ptr %1, ptr %5, align 8
  store ptr %2, ptr %6, align 8
  %9 = load ptr, ptr @gdata, align 8
  %10 = getelementptr inbounds %struct.BackendGlobalData, ptr %9, i32 0, i32 38
  %11 = load i32, ptr %10, align 8
  %12 = and i32 %11, 64
  %13 = icmp ne i32 %12, 0
  br i1 %13, label %14, label %16

14:                                               ; preds = %3
  call void @log_message_begin(ptr noundef @.str.28, ptr noundef @.str.4, i32 noundef 896)
  %15 = load ptr, ptr %6, align 8
  call void (ptr, ...) @log_message_end(ptr noundef @.str.83, ptr noundef %15)
  br label %17

16:                                               ; preds = %3
  br label %17

17:                                               ; preds = %16, %14
  br label %18

18:                                               ; preds = %17
  %19 = load ptr, ptr @gdata, align 8
  %20 = icmp ne ptr %19, null
  br i1 %20, label %21, label %33

21:                                               ; preds = %18
  %22 = load ptr, ptr @gdata, align 8
  %23 = getelementptr inbounds %struct.BackendGlobalData, ptr %22, i32 0, i32 3
  %24 = load i8, ptr %23, align 1
  %25 = zext i8 %24 to i32
  %26 = icmp ne i32 %25, 0
  br i1 %26, label %27, label %33

27:                                               ; preds = %21
  %28 = load ptr, ptr @gdata, align 8
  %29 = getelementptr inbounds %struct.BackendGlobalData, ptr %28, i32 0, i32 5
  %30 = load i8, ptr %29, align 1
  %31 = icmp ne i8 %30, 0
  br i1 %31, label %33, label %32

32:                                               ; preds = %27
  call void @jdiAssertionFailed(ptr noundef @.str.4, i32 noundef 897, ptr noundef @.str.81)
  br label %33

33:                                               ; preds = %32, %27, %21, %18
  br label %34

34:                                               ; preds = %33
  store i8 1, ptr %8, align 1
  %35 = load ptr, ptr @callbackLock, align 8
  call void @debugMonitorEnter(ptr noundef %35)
  %36 = load i8, ptr @vm_death_callback_active, align 1
  %37 = icmp ne i8 %36, 0
  br i1 %37, label %38, label %42

38:                                               ; preds = %34
  %39 = load ptr, ptr @callbackLock, align 8
  call void @debugMonitorExit(ptr noundef %39)
  %40 = load ptr, ptr @callbackBlock, align 8
  call void @debugMonitorEnter(ptr noundef %40)
  %41 = load ptr, ptr @callbackBlock, align 8
  call void @debugMonitorExit(ptr noundef %41)
  br label %46

42:                                               ; preds = %34
  %43 = load i32, ptr @active_callbacks, align 4
  %44 = add nsw i32 %43, 1
  store i32 %44, ptr @active_callbacks, align 4
  store i8 0, ptr %8, align 1
  %45 = load ptr, ptr @callbackLock, align 8
  call void @debugMonitorExit(ptr noundef %45)
  br label %46

46:                                               ; preds = %42, %38
  %47 = load i8, ptr %8, align 1
  %48 = icmp ne i8 %47, 0
  br i1 %48, label %82, label %49

49:                                               ; preds = %46
  call void @llvm.memset.p0.i64(ptr align 8 %7, i8 0, i64 88, i1 false)
  %50 = getelementptr inbounds %struct.EventInfo, ptr %7, i32 0, i32 0
  store i32 6, ptr %50, align 8
  %51 = load ptr, ptr %6, align 8
  %52 = getelementptr inbounds %struct.EventInfo, ptr %7, i32 0, i32 1
  store ptr %51, ptr %52, align 8
  %53 = load ptr, ptr %5, align 8
  call void @event_callback(ptr noundef %53, ptr noundef %7)
  %54 = load ptr, ptr @callbackLock, align 8
  call void @debugMonitorEnter(ptr noundef %54)
  %55 = load i32, ptr @active_callbacks, align 4
  %56 = add nsw i32 %55, -1
  store i32 %56, ptr @active_callbacks, align 4
  %57 = load i32, ptr @active_callbacks, align 4
  %58 = icmp slt i32 %57, 0
  br i1 %58, label %59, label %62

59:                                               ; preds = %49
  %60 = load ptr, ptr @stderr, align 8
  %61 = call ptr @jvmtiErrorText(i32 noundef 0)
  call void (ptr, ptr, ptr, ptr, ...) @print_message(ptr noundef %60, ptr noundef @.str, ptr noundef @.str.1, ptr noundef @.str.2, ptr noundef %61, i32 noundef 0, ptr noundef @.str.30, ptr noundef @.str.4, i32 noundef 905)
  call void @debugInit_exit(i32 noundef 0, ptr noundef @.str.30)
  br label %62

62:                                               ; preds = %59, %49
  %63 = load i8, ptr @vm_death_callback_active, align 1
  %64 = icmp ne i8 %63, 0
  br i1 %64, label %65, label %74

65:                                               ; preds = %62
  %66 = load i32, ptr @active_callbacks, align 4
  %67 = icmp eq i32 %66, 0
  br i1 %67, label %68, label %70

68:                                               ; preds = %65
  %69 = load ptr, ptr @callbackLock, align 8
  call void @debugMonitorNotifyAll(ptr noundef %69)
  br label %70

70:                                               ; preds = %68, %65
  %71 = load ptr, ptr @callbackLock, align 8
  call void @debugMonitorExit(ptr noundef %71)
  %72 = load ptr, ptr @callbackBlock, align 8
  call void @debugMonitorEnter(ptr noundef %72)
  %73 = load ptr, ptr @callbackBlock, align 8
  call void @debugMonitorExit(ptr noundef %73)
  br label %81

74:                                               ; preds = %62
  %75 = load i32, ptr @active_callbacks, align 4
  %76 = icmp eq i32 %75, 0
  br i1 %76, label %77, label %79

77:                                               ; preds = %74
  %78 = load ptr, ptr @callbackLock, align 8
  call void @debugMonitorNotifyAll(ptr noundef %78)
  br label %79

79:                                               ; preds = %77, %74
  %80 = load ptr, ptr @callbackLock, align 8
  call void @debugMonitorExit(ptr noundef %80)
  br label %81

81:                                               ; preds = %79, %70
  br label %82

82:                                               ; preds = %81, %46
  %83 = load ptr, ptr @gdata, align 8
  %84 = getelementptr inbounds %struct.BackendGlobalData, ptr %83, i32 0, i32 38
  %85 = load i32, ptr %84, align 8
  %86 = and i32 %85, 8
  %87 = icmp ne i32 %86, 0
  br i1 %87, label %88, label %89

88:                                               ; preds = %82
  call void @log_message_begin(ptr noundef @.str.25, ptr noundef @.str.4, i32 noundef 907)
  call void (ptr, ...) @log_message_end(ptr noundef @.str.84)
  br label %90

89:                                               ; preds = %82
  br label %90

90:                                               ; preds = %89, %88
  ret void
}