; Function Attrs: nounwind uwtable
define internal void @cbVThreadEnd(ptr nocapture readnone %0, ptr noundef %1, ptr noundef %2) #0 {
  %4 = alloca %struct.EventInfo, align 8
  %5 = load ptr, ptr @gdata, align 8
  %6 = getelementptr inbounds i8, ptr %5, i64 528
  %7 = load i32, ptr %6, align 8
  %8 = and i32 %7, 64
  %.not = icmp eq i32 %8, 0
  br i1 %.not, label %.thread, label %9

9:                                                ; preds = %3
  tail call void @log_message_begin(ptr noundef nonnull @.str.28, ptr noundef nonnull @.str.4, i32 noundef 896) #6
  tail call void (ptr, ...) @log_message_end(ptr noundef nonnull @.str.83, ptr noundef %2) #6
  %.pr = load ptr, ptr @gdata, align 8
  %.not5 = icmp eq ptr %.pr, null
  br i1 %.not5, label %17, label %.thread

.thread:                                          ; preds = %3, %9
  %10 = phi ptr [ %.pr, %9 ], [ %5, %3 ]
  %11 = getelementptr inbounds i8, ptr %10, i64 17
  %12 = load i8, ptr %11, align 1
  %.not6 = icmp eq i8 %12, 0
  br i1 %.not6, label %17, label %13

13:                                               ; preds = %.thread
  %14 = getelementptr inbounds i8, ptr %10, i64 19
  %15 = load i8, ptr %14, align 1
  %.not7 = icmp eq i8 %15, 0
  br i1 %.not7, label %16, label %17

16:                                               ; preds = %13
  tail call void @jdiAssertionFailed(ptr noundef nonnull @.str.4, i32 noundef 897, ptr noundef nonnull @.str.81) #6
  br label %17

17:                                               ; preds = %9, %.thread, %13, %16
  %18 = load ptr, ptr @callbackLock, align 8
  tail call void @debugMonitorEnter(ptr noundef %18) #6
  %.b4 = load i1, ptr @vm_death_callback_active, align 1
  br i1 %.b4, label %.thread11, label %22

.thread11:                                        ; preds = %17
  %19 = load ptr, ptr @callbackLock, align 8
  tail call void @debugMonitorExit(ptr noundef %19) #6
  %20 = load ptr, ptr @callbackBlock, align 8
  tail call void @debugMonitorEnter(ptr noundef %20) #6
  %21 = load ptr, ptr @callbackBlock, align 8
  tail call void @debugMonitorExit(ptr noundef %21) #6
  br label %49

22:                                               ; preds = %17
  %23 = load i32, ptr @active_callbacks, align 4
  %24 = add nsw i32 %23, 1
  store i32 %24, ptr @active_callbacks, align 4
  %25 = load ptr, ptr @callbackLock, align 8
  tail call void @debugMonitorExit(ptr noundef %25) #6
  call void @llvm.memset.p0.i64(ptr noundef nonnull align 8 dereferenceable(88) %4, i8 0, i64 88, i1 false)
  store i32 6, ptr %4, align 8
  %26 = getelementptr inbounds i8, ptr %4, i64 8
  store ptr %2, ptr %26, align 8
  call fastcc void @event_callback(ptr noundef %1, ptr noundef nonnull %4)
  %27 = load ptr, ptr @callbackLock, align 8
  call void @debugMonitorEnter(ptr noundef %27) #6
  %28 = load i32, ptr @active_callbacks, align 4
  %29 = add nsw i32 %28, -1
  store i32 %29, ptr @active_callbacks, align 4
  %30 = icmp slt i32 %28, 1
  br i1 %30, label %31, label %34

31:                                               ; preds = %22
  %32 = load ptr, ptr @stderr, align 8
  %33 = call ptr @jvmtiErrorText(i32 noundef 0) #6
  call void (ptr, ptr, ptr, ptr, ...) @print_message(ptr noundef %32, ptr noundef nonnull @.str, ptr noundef nonnull @.str.1, ptr noundef nonnull @.str.2, ptr noundef %33, i32 noundef 0, ptr noundef nonnull @.str.30, ptr noundef nonnull @.str.4, i32 noundef 905) #6
  call void @debugInit_exit(i32 noundef 0, ptr noundef nonnull @.str.30) #6
  br label %34

34:                                               ; preds = %31, %22
  %.b = load i1, ptr @vm_death_callback_active, align 1
  %35 = load i32, ptr @active_callbacks, align 4
  %36 = icmp eq i32 %35, 0
  br i1 %.b, label %37, label %44

37:                                               ; preds = %34
  br i1 %36, label %38, label %40

38:                                               ; preds = %37
  %39 = load ptr, ptr @callbackLock, align 8
  call void @debugMonitorNotifyAll(ptr noundef %39) #6
  br label %40

40:                                               ; preds = %38, %37
  %41 = load ptr, ptr @callbackLock, align 8
  call void @debugMonitorExit(ptr noundef %41) #6
  %42 = load ptr, ptr @callbackBlock, align 8
  call void @debugMonitorEnter(ptr noundef %42) #6
  %43 = load ptr, ptr @callbackBlock, align 8
  call void @debugMonitorExit(ptr noundef %43) #6
  br label %49

44:                                               ; preds = %34
  br i1 %36, label %45, label %47

45:                                               ; preds = %44
  %46 = load ptr, ptr @callbackLock, align 8
  call void @debugMonitorNotifyAll(ptr noundef %46) #6
  br label %47

47:                                               ; preds = %45, %44
  %48 = load ptr, ptr @callbackLock, align 8
  call void @debugMonitorExit(ptr noundef %48) #6
  br label %49

49:                                               ; preds = %.thread11, %40, %47
  %50 = load ptr, ptr @gdata, align 8
  %51 = getelementptr inbounds i8, ptr %50, i64 528
  %52 = load i32, ptr %51, align 8
  %53 = and i32 %52, 8
  %.not9 = icmp eq i32 %53, 0
  br i1 %.not9, label %55, label %54

54:                                               ; preds = %49
  call void @log_message_begin(ptr noundef nonnull @.str.25, ptr noundef nonnull @.str.4, i32 noundef 907) #6
  call void (ptr, ...) @log_message_end(ptr noundef nonnull @.str.84) #6
  br label %55

55:                                               ; preds = %49, %54
  ret void
}